target datalayout = "e-m:e-p270:32:32-p271:32:32-p272:64:64-i64:64-i128:128-f80:128-n8:16:32:64-S128"
target triple = "x86_64-pc-linux-gnu"

%struct.MergeAppendState = type { %struct.PlanState, ptr, i32, i32, ptr, ptr, ptr, i8, ptr, ptr }
%struct.PlanState = type { i32, ptr, ptr, ptr, ptr, ptr, ptr, ptr, ptr, ptr, ptr, ptr, ptr, ptr, ptr, ptr, ptr, ptr, i8, ptr, ptr, ptr, ptr, ptr, i8, i8, i8, i8, i8, i8, i8, i8 }
%struct.PartitionPruneState = type { ptr, ptr, ptr, ptr, i8, i8, i32, [0 x ptr] }

; Function Attrs: nounwind uwtable
define dso_local void @ExecReScanMergeAppend(ptr noundef %0) #0 {
  %2 = alloca ptr, align 8
  %3 = alloca i32, align 4
  %4 = alloca ptr, align 8
  store ptr %0, ptr %2, align 8
  call void @llvm.lifetime.start.p0(i64 4, ptr %3) #5
  %5 = load ptr, ptr %2, align 8
  %6 = getelementptr inbounds nuw %struct.MergeAppendState, ptr %5, i32 0, i32 8
  %7 = load ptr, ptr %6, align 8
  %8 = icmp ne ptr %7, null
  br i1 %8, label %9, label %26

9:                                                ; preds = %1
  %10 = load ptr, ptr %2, align 8
  %11 = getelementptr inbounds nuw %struct.MergeAppendState, ptr %10, i32 0, i32 0
  %12 = getelementptr inbounds nuw %struct.PlanState, ptr %11, i32 0, i32 13
  %13 = load ptr, ptr %12, align 8
  %14 = load ptr, ptr %2, align 8
  %15 = getelementptr inbounds nuw %struct.MergeAppendState, ptr %14, i32 0, i32 8
  %16 = load ptr, ptr %15, align 8
  %17 = getelementptr inbounds nuw %struct.PartitionPruneState, ptr %16, i32 0, i32 1
  %18 = load ptr, ptr %17, align 8
  %19 = call zeroext i1 @bms_overlap(ptr noundef %13, ptr noundef %18)
  br i1 %19, label %20, label %26

20:                                               ; preds = %9
  %21 = load ptr, ptr %2, align 8
  %22 = getelementptr inbounds nuw %struct.MergeAppendState, ptr %21, i32 0, i32 9
  %23 = load ptr, ptr %22, align 8
  call void @bms_free(ptr noundef %23)
  %24 = load ptr, ptr %2, align 8
  %25 = getelementptr inbounds nuw %struct.MergeAppendState, ptr %24, i32 0, i32 9
  store ptr null, ptr %25, align 8
  br label %26

26:                                               ; preds = %20, %9, %1
  store i32 0, ptr %3, align 4
  br label %27

27:                                               ; preds = %60, %26
  %28 = load i32, ptr %3, align 4
  %29 = load ptr, ptr %2, align 8
  %30 = getelementptr inbounds nuw %struct.MergeAppendState, ptr %29, i32 0, i32 2
  %31 = load i32, ptr %30, align 8
  %32 = icmp slt i32 %28, %31
  br i1 %32, label %33, label %63

33:                                               ; preds = %27
  call void @llvm.lifetime.start.p0(i64 8, ptr %4) #5
  %34 = load ptr, ptr %2, align 8
  %35 = getelementptr inbounds nuw %struct.MergeAppendState, ptr %34, i32 0, i32 1
  %36 = load ptr, ptr %35, align 8
  %37 = load i32, ptr %3, align 4
  %38 = sext i32 %37 to i64
  %39 = getelementptr inbounds ptr, ptr %36, i64 %38
  %40 = load ptr, ptr %39, align 8
  store ptr %40, ptr %4, align 8
  %41 = load ptr, ptr %2, align 8
  %42 = getelementptr inbounds nuw %struct.MergeAppendState, ptr %41, i32 0, i32 0
  %43 = getelementptr inbounds nuw %struct.PlanState, ptr %42, i32 0, i32 13
  %44 = load ptr, ptr %43, align 8
  %45 = icmp ne ptr %44, null
  br i1 %45, label %46, label %52

46:                                               ; preds = %33
  %47 = load ptr, ptr %4, align 8
  %48 = load ptr, ptr %2, align 8
  %49 = getelementptr inbounds nuw %struct.MergeAppendState, ptr %48, i32 0, i32 0
  %50 = getelementptr inbounds nuw %struct.PlanState, ptr %49, i32 0, i32 13
  %51 = load ptr, ptr %50, align 8
  call void @UpdateChangedParamSet(ptr noundef %47, ptr noundef %51)
  br label %52

52:                                               ; preds = %46, %33
  %53 = load ptr, ptr %4, align 8
  %54 = getelementptr inbounds nuw %struct.PlanState, ptr %53, i32 0, i32 13
  %55 = load ptr, ptr %54, align 8
  %56 = icmp eq ptr %55, null
  br i1 %56, label %57, label %59

57:                                               ; preds = %52
  %58 = load ptr, ptr %4, align 8
  call void @ExecReScan(ptr noundef %58)
  br label %59

59:                                               ; preds = %57, %52
  call void @llvm.lifetime.end.p0(i64 8, ptr %4) #5
  br label %60

60:                                               ; preds = %59
  %61 = load i32, ptr %3, align 4
  %62 = add i32 %61, 1
  store i32 %62, ptr %3, align 4
  br label %27, !llvm.loop !12

63:                                               ; preds = %27
  %64 = load ptr, ptr %2, align 8
  %65 = getelementptr inbounds nuw %struct.MergeAppendState, ptr %64, i32 0, i32 6
  %66 = load ptr, ptr %65, align 8
  call void @binaryheap_reset(ptr noundef %66)
  %67 = load ptr, ptr %2, align 8
  %68 = getelementptr inbounds nuw %struct.MergeAppendState, ptr %67, i32 0, i32 7
  store i8 0, ptr %68, align 8
  call void @llvm.lifetime.end.p0(i64 4, ptr %3) #5
  ret void
}