; Function Attrs: nounwind uwtable
define dso_local void @ExecReScanMergeAppend(ptr noundef captures(none) %0) local_unnamed_addr #0 {
  %2 = getelementptr inbounds nuw i8, ptr %0, i64 248
  %3 = load ptr, ptr %2, align 8
  %.not = icmp eq ptr %3, null
  br i1 %.not, label %13, label %4

4:                                                ; preds = %1
  %5 = getelementptr inbounds nuw i8, ptr %0, i64 104
  %6 = load ptr, ptr %5, align 8
  %7 = getelementptr inbounds nuw i8, ptr %3, i64 8
  %8 = load ptr, ptr %7, align 8
  %9 = tail call zeroext i1 @bms_overlap(ptr noundef %6, ptr noundef %8) #3
  br i1 %9, label %10, label %13

10:                                               ; preds = %4
  %11 = getelementptr inbounds nuw i8, ptr %0, i64 256
  %12 = load ptr, ptr %11, align 8
  tail call void @bms_free(ptr noundef %12) #3
  store ptr null, ptr %11, align 8
  br label %13

13:                                               ; preds = %10, %4, %1
  %14 = getelementptr inbounds nuw i8, ptr %0, i64 208
  %15 = load i32, ptr %14, align 8
  %16 = icmp sgt i32 %15, 0
  br i1 %16, label %.lr.ph, label %._crit_edge

.lr.ph:                                           ; preds = %13
  %17 = getelementptr inbounds nuw i8, ptr %0, i64 200
  %18 = getelementptr inbounds nuw i8, ptr %0, i64 104
  br label %19

19:                                               ; preds = %.lr.ph, %30
  %indvars.iv = phi i64 [ 0, %.lr.ph ], [ %indvars.iv.next, %30 ]
  %20 = load ptr, ptr %17, align 8
  %21 = getelementptr inbounds nuw ptr, ptr %20, i64 %indvars.iv
  %22 = load ptr, ptr %21, align 8
  %23 = load ptr, ptr %18, align 8
  %.not18 = icmp eq ptr %23, null
  br i1 %.not18, label %25, label %24

24:                                               ; preds = %19
  tail call void @UpdateChangedParamSet(ptr noundef %22, ptr noundef nonnull %23) #3
  br label %25

25:                                               ; preds = %24, %19
  %26 = getelementptr inbounds nuw i8, ptr %22, i64 104
  %27 = load ptr, ptr %26, align 8
  %28 = icmp eq ptr %27, null
  br i1 %28, label %29, label %30

29:                                               ; preds = %25
  tail call void @ExecReScan(ptr noundef nonnull %22) #3
  br label %30

30:                                               ; preds = %29, %25
  %indvars.iv.next = add nuw nsw i64 %indvars.iv, 1
  %31 = load i32, ptr %14, align 8
  %32 = sext i32 %31 to i64
  %33 = icmp slt i64 %indvars.iv.next, %32
  br i1 %33, label %19, label %._crit_edge, !llvm.loop !13

._crit_edge:                                      ; preds = %30, %13
  %34 = getelementptr inbounds nuw i8, ptr %0, i64 232
  %35 = load ptr, ptr %34, align 8
  tail call void @binaryheap_reset(ptr noundef %35) #3
  %36 = getelementptr inbounds nuw i8, ptr %0, i64 240
  store i8 0, ptr %36, align 8
  ret void
}